target datalayout = "e-m:e-p270:32:32-p271:32:32-p272:64:64-i64:64-i128:128-f80:128-n8:16:32:64-S128"
target triple = "x86_64-pc-linux-gnu"

; Function Attrs: nounwind uwtable
define i32 @ff_vvc_intra_pred_angle_derive(i32 noundef %0) #0 {
  %2 = alloca i32, align 4
  %3 = alloca i32, align 4
  %4 = alloca i32, align 4
  %5 = alloca i32, align 4
  store i32 %0, ptr %2, align 4, !tbaa !4
  call void @llvm.lifetime.start.p0(i64 4, ptr %3) #6
  store i32 1, ptr %3, align 4, !tbaa !4
  call void @llvm.lifetime.start.p0(i64 4, ptr %4) #6
  call void @llvm.lifetime.start.p0(i64 4, ptr %5) #6
  %6 = load i32, ptr %2, align 4, !tbaa !4
  %7 = icmp sgt i32 %6, 34
  br i1 %7, label %8, label %11

8:                                                ; preds = %1
  %9 = load i32, ptr %2, align 4, !tbaa !4
  %10 = sub nsw i32 %9, 50
  store i32 %10, ptr %4, align 4, !tbaa !4
  br label %21

11:                                               ; preds = %1
  %12 = load i32, ptr %2, align 4, !tbaa !4
  %13 = icmp sgt i32 %12, 0
  br i1 %13, label %14, label %17

14:                                               ; preds = %11
  %15 = load i32, ptr %2, align 4, !tbaa !4
  %16 = sub nsw i32 18, %15
  store i32 %16, ptr %4, align 4, !tbaa !4
  br label %20

17:                                               ; preds = %11
  %18 = load i32, ptr %2, align 4, !tbaa !4
  %19 = sub nsw i32 16, %18
  store i32 %19, ptr %4, align 4, !tbaa !4
  br label %20

20:                                               ; preds = %17, %14
  br label %21

21:                                               ; preds = %20, %8
  %22 = load i32, ptr %4, align 4, !tbaa !4
  %23 = icmp slt i32 %22, 0
  br i1 %23, label %24, label %27

24:                                               ; preds = %21
  %25 = load i32, ptr %4, align 4, !tbaa !4
  %26 = sub nsw i32 0, %25
  store i32 %26, ptr %4, align 4, !tbaa !4
  store i32 -1, ptr %3, align 4, !tbaa !4
  br label %27

27:                                               ; preds = %24, %21
  %28 = load i32, ptr %3, align 4, !tbaa !4
  %29 = load i32, ptr %4, align 4, !tbaa !4
  %30 = sext i32 %29 to i64
  %31 = getelementptr inbounds [31 x i32], ptr @ff_vvc_intra_pred_angle_derive.angles, i64 0, i64 %30
  %32 = load i32, ptr %31, align 4, !tbaa !4
  %33 = mul nsw i32 %28, %32
  store i32 %33, ptr %5, align 4, !tbaa !4
  %34 = load i32, ptr %5, align 4, !tbaa !4
  call void @llvm.lifetime.end.p0(i64 4, ptr %5) #6
  call void @llvm.lifetime.end.p0(i64 4, ptr %4) #6
  call void @llvm.lifetime.end.p0(i64 4, ptr %3) #6
  ret i32 %34
}