; Function Attrs: mustprogress nofree norecurse nosync nounwind willreturn memory(none) uwtable
define i32 @ff_vvc_intra_pred_angle_derive(i32 noundef %0) local_unnamed_addr #0 {
  %2 = icmp sgt i32 %0, 34
  br i1 %2, label %3, label %5

3:                                                ; preds = %1
  %4 = add nsw i32 %0, -50
  br label %11

5:                                                ; preds = %1
  %6 = icmp sgt i32 %0, 0
  br i1 %6, label %7, label %9

7:                                                ; preds = %5
  %8 = sub nsw i32 18, %0
  br label %11

9:                                                ; preds = %5
  %10 = sub nsw i32 16, %0
  br label %11

11:                                               ; preds = %7, %9, %3
  %.010 = phi i32 [ %4, %3 ], [ %8, %7 ], [ %10, %9 ]
  %spec.select = tail call i32 @llvm.abs.i32(i32 %.010, i1 true)
  %12 = zext nneg i32 %spec.select to i64
  %13 = getelementptr inbounds nuw [31 x i32], ptr @ff_vvc_intra_pred_angle_derive.angles, i64 0, i64 %12
  %14 = load i32, ptr %13, align 4, !tbaa !7
  %15 = sub nsw i32 0, %14
  %.inv14 = icmp slt i32 %.010, 0
  %16 = select i1 %.inv14, i32 %15, i32 %14
  ret i32 %16
}